target datalayout = "e-m:e-p270:32:32-p271:32:32-p272:64:64-i64:64-i128:128-f80:128-n8:16:32:64-S128"
target triple = "x86_64-pc-linux-gnu"

%class.HotSpotCompiledCodeStream = type { ptr, ptr, ptr, i8, %class.objArrayHandle, ptr, ptr, ptr }
%class.objArrayHandle = type { %class.Handle }
%class.Handle = type { ptr }
%"class.HotSpotCompiledCodeStream::Chunk" = type <{ ptr, i32, [4 x i8] }>

@.str = private unnamed_addr constant [47 x i8] c"src/hotspot/share/jvmci/jvmciCodeInstaller.cpp\00", align 1
@tty = external global ptr, align 8
@g_assert_poison = external global ptr, align 8
@.str.17 = private unnamed_addr constant [50 x i8] c"%s: reading %d bytes overflows buffer at 0x%016lx\00", align 1
@.str.20 = private unnamed_addr constant [31 x i8] c"guarantee(utf_len >= 0) failed\00", align 1
@.str.21 = private unnamed_addr constant [16 x i8] c"bad utf_len: %d\00", align 1
@.str.22 = private unnamed_addr constant [68 x i8] c"UTF8 string at 0x%016lx of length %d missing 0 terminator: \22%.*s\22%s\00", align 1

; Function Attrs: mustprogress nounwind uwtable
define linkonce_odr hidden noundef ptr @_ZNK25HotSpotCompiledCodeStream5Chunk4dataEv(ptr noundef nonnull align 8 dereferenceable(12) %0) #1 comdat align 2 {
  %2 = alloca ptr, align 8
  store ptr %0, ptr %2, align 8
  %3 = load ptr, ptr %2, align 8
  %4 = getelementptr inbounds i8, ptr %3, i64 12
  ret ptr %4
}

; Function Attrs: mustprogress nounwind uwtable
define linkonce_odr hidden noundef ptr @_ZNK25HotSpotCompiledCodeStream9code_descEv(ptr noundef nonnull align 8 dereferenceable(64) %0) #1 comdat align 2 {
  %2 = alloca ptr, align 8
  store ptr %0, ptr %2, align 8
  %3 = load ptr, ptr %2, align 8
  %4 = getelementptr inbounds %class.HotSpotCompiledCodeStream, ptr %3, i32 0, i32 7
  %5 = load ptr, ptr %4, align 8
  ret ptr %5
}

; Function Attrs: mustprogress nounwind uwtable
define linkonce_odr hidden noundef i32 @_ZNK25HotSpotCompiledCodeStream5Chunk4sizeEv(ptr noundef nonnull align 8 dereferenceable(12) %0) #1 comdat align 2 {
  %2 = alloca ptr, align 8
  store ptr %0, ptr %2, align 8
  %3 = load ptr, ptr %2, align 8
  %4 = getelementptr inbounds %"class.HotSpotCompiledCodeStream::Chunk", ptr %3, i32 0, i32 1
  %5 = load i32, ptr %4, align 8
  ret i32 %5
}

; Function Attrs: mustprogress nounwind uwtable
define linkonce_odr hidden noundef ptr @_ZNK25HotSpotCompiledCodeStream5Chunk4nextEv(ptr noundef nonnull align 8 dereferenceable(12) %0) #1 comdat align 2 {
  %2 = alloca ptr, align 8
  store ptr %0, ptr %2, align 8
  %3 = load ptr, ptr %2, align 8
  %4 = getelementptr inbounds %"class.HotSpotCompiledCodeStream::Chunk", ptr %3, i32 0, i32 0
  %5 = load ptr, ptr %4, align 8
  ret ptr %5
}

; Function Attrs: mustprogress nounwind uwtable
define linkonce_odr hidden noundef ptr @_ZNK25HotSpotCompiledCodeStream5Chunk8data_endEv(ptr noundef nonnull align 8 dereferenceable(12) %0) #1 comdat align 2 {
  %2 = alloca ptr, align 8
  store ptr %0, ptr %2, align 8
  %3 = load ptr, ptr %2, align 8
  %4 = call noundef ptr @_ZNK25HotSpotCompiledCodeStream5Chunk4dataEv(ptr noundef nonnull align 8 dereferenceable(12) %3)
  %5 = getelementptr inbounds %"class.HotSpotCompiledCodeStream::Chunk", ptr %3, i32 0, i32 1
  %6 = load i32, ptr %5, align 8
  %7 = zext i32 %6 to i64
  %8 = getelementptr inbounds i8, ptr %4, i64 %7
  ret ptr %8
}

; Function Attrs: mustprogress nounwind uwtable
define hidden void @_ZN25HotSpotCompiledCodeStream11before_readEh(ptr noundef nonnull align 8 dereferenceable(64) %0, i8 noundef zeroext %1) #1 align 2 {
  %3 = alloca ptr, align 8
  %4 = alloca i8, align 1
  %5 = alloca ptr, align 8
  store ptr %0, ptr %3, align 8
  store i8 %1, ptr %4, align 1
  %6 = load ptr, ptr %3, align 8
  %7 = getelementptr inbounds %class.HotSpotCompiledCodeStream, ptr %6, i32 0, i32 2
  %8 = load ptr, ptr %7, align 8
  %9 = load i8, ptr %4, align 1
  %10 = zext i8 %9 to i32
  %11 = sext i32 %10 to i64
  %12 = getelementptr inbounds i8, ptr %8, i64 %11
  %13 = getelementptr inbounds %class.HotSpotCompiledCodeStream, ptr %6, i32 0, i32 1
  %14 = load ptr, ptr %13, align 8
  %15 = call noundef ptr @_ZNK25HotSpotCompiledCodeStream5Chunk8data_endEv(ptr noundef nonnull align 8 dereferenceable(12) %14)
  %16 = icmp ugt ptr %12, %15
  br i1 %16, label %17, label %47

17:                                               ; preds = %2
  %18 = getelementptr inbounds %class.HotSpotCompiledCodeStream, ptr %6, i32 0, i32 1
  %19 = load ptr, ptr %18, align 8
  %20 = call noundef ptr @_ZNK25HotSpotCompiledCodeStream5Chunk4nextEv(ptr noundef nonnull align 8 dereferenceable(12) %19)
  store ptr %20, ptr %5, align 8
  %21 = load ptr, ptr %5, align 8
  %22 = icmp eq ptr %21, null
  br i1 %22, label %29, label %23

23:                                               ; preds = %17
  %24 = load i8, ptr %4, align 1
  %25 = zext i8 %24 to i32
  %26 = load ptr, ptr %5, align 8
  %27 = call noundef i32 @_ZNK25HotSpotCompiledCodeStream5Chunk4sizeEv(ptr noundef nonnull align 8 dereferenceable(12) %26)
  %28 = icmp ugt i32 %25, %27
  br i1 %28, label %29, label %40

29:                                               ; preds = %23, %17
  %30 = load ptr, ptr @tty, align 8
  call void @_ZNK25HotSpotCompiledCodeStream11dump_bufferEP12outputStream(ptr noundef nonnull align 8 dereferenceable(64) %6, ptr noundef %30)
  br label %31

31:                                               ; preds = %29
  %32 = load ptr, ptr @g_assert_poison, align 8
  store i8 88, ptr %32, align 1
  %33 = call noundef ptr @_ZNK25HotSpotCompiledCodeStream9code_descEv(ptr noundef nonnull align 8 dereferenceable(64) %6)
  %34 = load i8, ptr %4, align 1
  %35 = zext i8 %34 to i32
  %36 = getelementptr inbounds %class.HotSpotCompiledCodeStream, ptr %6, i32 0, i32 2
  %37 = load ptr, ptr %36, align 8
  %38 = call noundef i64 @_Z3p2iPVKv(ptr noundef %37)
  call void (i32, ptr, i32, ptr, ...) @_Z12report_fatal11VMErrorTypePKciS1_z(i32 noundef -536870912, ptr noundef @.str, i32 noundef 139, ptr noundef @.str.17, ptr noundef %33, i32 noundef %35, i64 noundef %38) #12
  unreachable

39:                                               ; No predecessors!
  br label %40

40:                                               ; preds = %39, %23
  %41 = load ptr, ptr %5, align 8
  %42 = getelementptr inbounds %class.HotSpotCompiledCodeStream, ptr %6, i32 0, i32 1
  store ptr %41, ptr %42, align 8
  %43 = getelementptr inbounds %class.HotSpotCompiledCodeStream, ptr %6, i32 0, i32 1
  %44 = load ptr, ptr %43, align 8
  %45 = call noundef ptr @_ZNK25HotSpotCompiledCodeStream5Chunk4dataEv(ptr noundef nonnull align 8 dereferenceable(12) %44)
  %46 = getelementptr inbounds %class.HotSpotCompiledCodeStream, ptr %6, i32 0, i32 2
  store ptr %45, ptr %46, align 8
  br label %47

47:                                               ; preds = %40, %2
  ret void
}

; Function Attrs: mustprogress nounwind uwtable
define linkonce_odr hidden noundef i32 @_ZN25HotSpotCompiledCodeStream6get_u4Ev(ptr noundef nonnull align 8 dereferenceable(64) %0) #1 comdat align 2 {
  %2 = alloca ptr, align 8
  %3 = alloca i32, align 4
  store ptr %0, ptr %2, align 8
  %4 = load ptr, ptr %2, align 8
  call void @_ZN25HotSpotCompiledCodeStream11before_readEh(ptr noundef nonnull align 8 dereferenceable(64) %4, i8 noundef zeroext 4)
  %5 = getelementptr inbounds %class.HotSpotCompiledCodeStream, ptr %4, i32 0, i32 2
  %6 = load ptr, ptr %5, align 8
  %7 = load i32, ptr %6, align 4
  store i32 %7, ptr %3, align 4
  %8 = getelementptr inbounds %class.HotSpotCompiledCodeStream, ptr %4, i32 0, i32 2
  %9 = load ptr, ptr %8, align 8
  %10 = getelementptr inbounds i8, ptr %9, i64 4
  store ptr %10, ptr %8, align 8
  %11 = load i32, ptr %3, align 4
  ret i32 %11
}

; Function Attrs: mustprogress nounwind uwtable
define linkonce_odr hidden noundef i64 @_Z3p2iPVKv(ptr noundef %0) #1 comdat {
  %2 = alloca ptr, align 8
  store ptr %0, ptr %2, align 8
  %3 = load ptr, ptr %2, align 8
  %4 = ptrtoint ptr %3 to i64
  ret i64 %4
}

; Function Attrs: mustprogress nounwind uwtable
define linkonce_odr hidden noundef i32 @_ZN25HotSpotCompiledCodeStream7read_s4EPKc(ptr noundef nonnull align 8 dereferenceable(64) %0, ptr noundef %1) #1 comdat align 2 {
  %3 = alloca ptr, align 8
  %4 = alloca ptr, align 8
  store ptr %0, ptr %3, align 8
  store ptr %1, ptr %4, align 8
  %5 = load ptr, ptr %3, align 8
  br label %6

6:                                                ; preds = %2
  %7 = getelementptr inbounds %class.HotSpotCompiledCodeStream, ptr %5, i32 0, i32 3
  %8 = load i8, ptr %7, align 8
  %9 = trunc i8 %8 to i1
  br i1 %9, label %10, label %12

10:                                               ; preds = %6
  %11 = load ptr, ptr %4, align 8
  call void @_ZN25HotSpotCompiledCodeStream10check_dataEtPKc(ptr noundef nonnull align 8 dereferenceable(64) %5, i16 noundef zeroext 4, ptr noundef %11)
  br label %12

12:                                               ; preds = %10, %6
  %13 = call noundef i32 @_ZN25HotSpotCompiledCodeStream6get_u4Ev(ptr noundef nonnull align 8 dereferenceable(64) %5)
  ret i32 %13

14:                                               ; No predecessors!
  call void @llvm.trap()
  unreachable
}

; Function Attrs: mustprogress nounwind uwtable
define hidden noundef ptr @_ZN25HotSpotCompiledCodeStream9read_utf8EPKcP8JVMCIEnv(ptr noundef nonnull align 8 dereferenceable(64) %0, ptr noundef %1, ptr noundef %2) #1 align 2 {
  %4 = alloca ptr, align 8
  %5 = alloca ptr, align 8
  %6 = alloca ptr, align 8
  %7 = alloca ptr, align 8
  %8 = alloca i32, align 4
  %9 = alloca ptr, align 8
  %10 = alloca ptr, align 8
  store ptr %0, ptr %5, align 8
  store ptr %1, ptr %6, align 8
  store ptr %2, ptr %7, align 8
  %11 = load ptr, ptr %5, align 8
  %12 = load ptr, ptr %6, align 8
  %13 = call noundef i32 @_ZN25HotSpotCompiledCodeStream7read_s4EPKc(ptr noundef nonnull align 8 dereferenceable(64) %11, ptr noundef %12)
  store i32 %13, ptr %8, align 4
  %14 = load i32, ptr %8, align 4
  %15 = icmp eq i32 %14, -1
  br i1 %15, label %16, label %17

16:                                               ; preds = %3
  store ptr null, ptr %4, align 8
  br label %50

17:                                               ; preds = %3
  br label %18

18:                                               ; preds = %17
  %19 = load i32, ptr %8, align 4
  %20 = icmp sge i32 %19, 0
  br i1 %20, label %24, label %21

21:                                               ; preds = %18
  %22 = load ptr, ptr @g_assert_poison, align 8
  store i8 88, ptr %22, align 1
  %23 = load i32, ptr %8, align 4
  call void (ptr, i32, ptr, ptr, ...) @_Z15report_vm_errorPKciS0_S0_z(ptr noundef @.str, i32 noundef 173, ptr noundef @.str.20, ptr noundef @.str.21, i32 noundef %23) #12
  unreachable

24:                                               ; preds = %18
  br label %25

25:                                               ; preds = %24
  %26 = getelementptr inbounds %class.HotSpotCompiledCodeStream, ptr %11, i32 0, i32 2
  %27 = load ptr, ptr %26, align 8
  store ptr %27, ptr %9, align 8
  %28 = getelementptr inbounds %class.HotSpotCompiledCodeStream, ptr %11, i32 0, i32 2
  %29 = load ptr, ptr %28, align 8
  %30 = load i32, ptr %8, align 4
  %31 = sext i32 %30 to i64
  %32 = getelementptr inbounds i8, ptr %29, i64 %31
  store ptr %32, ptr %10, align 8
  %33 = load ptr, ptr %10, align 8
  %34 = getelementptr inbounds i8, ptr %33, i64 1
  %35 = getelementptr inbounds %class.HotSpotCompiledCodeStream, ptr %11, i32 0, i32 2
  store ptr %34, ptr %35, align 8
  %36 = load ptr, ptr %10, align 8
  %37 = load i8, ptr %36, align 1
  %38 = sext i8 %37 to i32
  %39 = icmp ne i32 %38, 0
  br i1 %39, label %40, label %48

40:                                               ; preds = %25
  %41 = load ptr, ptr %7, align 8
  %42 = load ptr, ptr %9, align 8
  %43 = call noundef i64 @_Z3p2iPVKv(ptr noundef %42)
  %44 = load i32, ptr %8, align 4
  %45 = load i32, ptr %8, align 4
  %46 = load ptr, ptr %9, align 8
  %47 = call noundef ptr @_ZNK25HotSpotCompiledCodeStream7contextEv(ptr noundef nonnull align 8 dereferenceable(64) %11)
  call void (ptr, ptr, i32, ptr, ...) @_ZN8JVMCIEnv12fthrow_errorEPKciS1_z(ptr noundef nonnull align 8 dereferenceable(64) %41, ptr noundef @.str, i32 noundef 180, ptr noundef @.str.22, i64 noundef %43, i32 noundef %44, i32 noundef %45, ptr noundef %46, ptr noundef %47)
  store ptr null, ptr %4, align 8
  br label %50

48:                                               ; preds = %25
  %49 = load ptr, ptr %9, align 8
  store ptr %49, ptr %4, align 8
  br label %50

50:                                               ; preds = %48, %40, %16
  %51 = load ptr, ptr %4, align 8
  ret ptr %51
}