; Function Attrs: mustprogress nounwind uwtable
define hidden noundef ptr @_ZN25HotSpotCompiledCodeStream9read_utf8EPKcP8JVMCIEnv(ptr nocapture noundef nonnull align 8 dereferenceable(64) %0, ptr noundef %1, ptr noundef %2) local_unnamed_addr #2 align 2 {
  %4 = getelementptr inbounds i8, ptr %0, i64 24
  %5 = load i8, ptr %4, align 8
  %6 = trunc i8 %5 to i1
  br i1 %6, label %7, label %8

7:                                                ; preds = %3
  tail call void @_ZN25HotSpotCompiledCodeStream10check_dataEtPKc(ptr noundef nonnull align 8 dereferenceable(64) %0, i16 noundef zeroext 4, ptr noundef %1)
  br label %8

8:                                                ; preds = %7, %3
  %9 = getelementptr inbounds i8, ptr %0, i64 16
  %10 = load ptr, ptr %9, align 8
  %11 = getelementptr inbounds i8, ptr %10, i64 4
  %12 = getelementptr inbounds i8, ptr %0, i64 8
  %13 = load ptr, ptr %12, align 8
  %14 = getelementptr inbounds i8, ptr %13, i64 12
  %15 = getelementptr inbounds i8, ptr %13, i64 8
  %16 = load i32, ptr %15, align 8
  %17 = zext i32 %16 to i64
  %18 = getelementptr inbounds i8, ptr %14, i64 %17
  %19 = icmp ugt ptr %11, %18
  br i1 %19, label %20, label %_ZN25HotSpotCompiledCodeStream7read_s4EPKc.exit

20:                                               ; preds = %8
  %21 = load ptr, ptr %13, align 8
  %22 = icmp eq ptr %21, null
  br i1 %22, label %27, label %23

23:                                               ; preds = %20
  %24 = getelementptr inbounds i8, ptr %21, i64 8
  %25 = load i32, ptr %24, align 8
  %26 = icmp ult i32 %25, 4
  br i1 %26, label %27, label %34

27:                                               ; preds = %23, %20
  %28 = load ptr, ptr @tty, align 8
  tail call void @_ZNK25HotSpotCompiledCodeStream11dump_bufferEP12outputStream(ptr noundef nonnull align 8 dereferenceable(64) %0, ptr noundef %28)
  %29 = load ptr, ptr @g_assert_poison, align 8
  store i8 88, ptr %29, align 1
  %30 = getelementptr inbounds i8, ptr %0, i64 56
  %31 = load ptr, ptr %30, align 8
  %32 = load ptr, ptr %9, align 8
  %33 = ptrtoint ptr %32 to i64
  tail call void (i32, ptr, i32, ptr, ...) @_Z12report_fatal11VMErrorTypePKciS1_z(i32 noundef -536870912, ptr noundef nonnull @.str, i32 noundef 139, ptr noundef nonnull @.str.17, ptr noundef %31, i32 noundef 4, i64 noundef %33) #11
  unreachable

34:                                               ; preds = %23
  store ptr %21, ptr %12, align 8
  %35 = getelementptr inbounds i8, ptr %21, i64 12
  store ptr %35, ptr %9, align 8
  br label %_ZN25HotSpotCompiledCodeStream7read_s4EPKc.exit

_ZN25HotSpotCompiledCodeStream7read_s4EPKc.exit:  ; preds = %8, %34
  %36 = phi ptr [ %10, %8 ], [ %35, %34 ]
  %37 = load i32, ptr %36, align 4
  %38 = getelementptr inbounds i8, ptr %36, i64 4
  store ptr %38, ptr %9, align 8
  %39 = icmp eq i32 %37, -1
  br i1 %39, label %52, label %40

40:                                               ; preds = %_ZN25HotSpotCompiledCodeStream7read_s4EPKc.exit
  %41 = icmp sgt i32 %37, -1
  br i1 %41, label %44, label %42

42:                                               ; preds = %40
  %43 = load ptr, ptr @g_assert_poison, align 8
  store i8 88, ptr %43, align 1
  tail call void (ptr, i32, ptr, ptr, ...) @_Z15report_vm_errorPKciS0_S0_z(ptr noundef nonnull @.str, i32 noundef 173, ptr noundef nonnull @.str.20, ptr noundef nonnull @.str.21, i32 noundef %37) #11
  unreachable

44:                                               ; preds = %40
  %45 = zext nneg i32 %37 to i64
  %46 = getelementptr inbounds i8, ptr %38, i64 %45
  %47 = getelementptr inbounds i8, ptr %46, i64 1
  store ptr %47, ptr %9, align 8
  %48 = load i8, ptr %46, align 1
  %.not = icmp eq i8 %48, 0
  br i1 %.not, label %52, label %49

49:                                               ; preds = %44
  %50 = ptrtoint ptr %38 to i64
  %51 = tail call noundef ptr @_ZNK25HotSpotCompiledCodeStream7contextEv(ptr noundef nonnull align 8 dereferenceable(64) %0)
  tail call void (ptr, ptr, i32, ptr, ...) @_ZN8JVMCIEnv12fthrow_errorEPKciS1_z(ptr noundef nonnull align 8 dereferenceable(64) %2, ptr noundef nonnull @.str, i32 noundef 180, ptr noundef nonnull @.str.22, i64 noundef %50, i32 noundef %37, i32 noundef %37, ptr noundef nonnull %38, ptr noundef %51) #10
  br label %52

52:                                               ; preds = %44, %_ZN25HotSpotCompiledCodeStream7read_s4EPKc.exit, %49
  %.0 = phi ptr [ null, %49 ], [ null, %_ZN25HotSpotCompiledCodeStream7read_s4EPKc.exit ], [ %38, %44 ]
  ret ptr %.0
}